target datalayout = "e-m:e-p270:32:32-p271:32:32-p272:64:64-i64:64-i128:128-f80:128-n8:16:32:64-S128"
target triple = "x86_64-pc-linux-gnu"

%struct.ObjectAddress = type { i32, i32, i32 }
%struct.AlterObjectDependsStmt = type { i32, i32, ptr, ptr, ptr, i8 }

; Function Attrs: nounwind uwtable
define dso_local { i64, i32 } @ExecAlterObjectDependsStmt(ptr noundef %0, ptr noundef %1) #0 {
  %3 = alloca %struct.ObjectAddress, align 4
  %4 = alloca ptr, align 8
  %5 = alloca ptr, align 8
  %6 = alloca %struct.ObjectAddress, align 4
  %7 = alloca ptr, align 8
  %8 = alloca %struct.ObjectAddress, align 4
  %9 = alloca { i64, i32 }, align 8
  %10 = alloca { i64, i32 }, align 4
  %11 = alloca %struct.ObjectAddress, align 4
  %12 = alloca { i64, i32 }, align 8
  %13 = alloca ptr, align 8
  %14 = alloca { i64, i32 }, align 8
  store ptr %0, ptr %4, align 8
  store ptr %1, ptr %5, align 8
  call void @llvm.lifetime.start.p0(i64 12, ptr %6) #6
  call void @llvm.lifetime.start.p0(i64 8, ptr %7) #6
  call void @llvm.lifetime.start.p0(i64 12, ptr %8) #6
  %15 = load ptr, ptr %4, align 8
  %16 = getelementptr inbounds nuw %struct.AlterObjectDependsStmt, ptr %15, i32 0, i32 1
  %17 = load i32, ptr %16, align 4
  %18 = load ptr, ptr %4, align 8
  %19 = getelementptr inbounds nuw %struct.AlterObjectDependsStmt, ptr %18, i32 0, i32 2
  %20 = load ptr, ptr %19, align 8
  %21 = load ptr, ptr %4, align 8
  %22 = getelementptr inbounds nuw %struct.AlterObjectDependsStmt, ptr %21, i32 0, i32 3
  %23 = load ptr, ptr %22, align 8
  %24 = call { i64, i32 } @get_object_address_rv(i32 noundef %17, ptr noundef %20, ptr noundef %23, ptr noundef %7, i32 noundef 8, i1 noundef zeroext false)
  store { i64, i32 } %24, ptr %9, align 8
  call void @llvm.memcpy.p0.p0.i64(ptr align 4 %8, ptr align 8 %9, i64 12, i1 false)
  call void @llvm.memcpy.p0.p0.i64(ptr align 4 %3, ptr align 4 %8, i64 12, i1 false)
  call void @llvm.lifetime.end.p0(i64 12, ptr %8) #6
  %25 = call i32 @GetUserId()
  %26 = load ptr, ptr %4, align 8
  %27 = getelementptr inbounds nuw %struct.AlterObjectDependsStmt, ptr %26, i32 0, i32 1
  %28 = load i32, ptr %27, align 4
  %29 = load ptr, ptr %4, align 8
  %30 = getelementptr inbounds nuw %struct.AlterObjectDependsStmt, ptr %29, i32 0, i32 3
  %31 = load ptr, ptr %30, align 8
  %32 = load ptr, ptr %7, align 8
  call void @llvm.memcpy.p0.p0.i64(ptr align 4 %10, ptr align 4 %3, i64 12, i1 false)
  %33 = getelementptr inbounds nuw { i64, i32 }, ptr %10, i32 0, i32 0
  %34 = load i64, ptr %33, align 4
  %35 = getelementptr inbounds nuw { i64, i32 }, ptr %10, i32 0, i32 1
  %36 = load i32, ptr %35, align 4
  call void @check_object_ownership(i32 noundef %25, i32 noundef %28, i64 %34, i32 %36, ptr noundef %31, ptr noundef %32)
  %37 = load ptr, ptr %7, align 8
  %38 = icmp ne ptr %37, null
  br i1 %38, label %39, label %41

39:                                               ; preds = %2
  %40 = load ptr, ptr %7, align 8
  call void @table_close(ptr noundef %40, i32 noundef 0)
  br label %41

41:                                               ; preds = %39, %2
  call void @llvm.lifetime.start.p0(i64 12, ptr %11) #6
  %42 = load ptr, ptr %4, align 8
  %43 = getelementptr inbounds nuw %struct.AlterObjectDependsStmt, ptr %42, i32 0, i32 4
  %44 = load ptr, ptr %43, align 8
  %45 = call { i64, i32 } @get_object_address(i32 noundef 15, ptr noundef %44, ptr noundef null, i32 noundef 8, i1 noundef zeroext false)
  store { i64, i32 } %45, ptr %12, align 8
  call void @llvm.memcpy.p0.p0.i64(ptr align 4 %11, ptr align 8 %12, i64 12, i1 false)
  call void @llvm.memcpy.p0.p0.i64(ptr align 4 %6, ptr align 4 %11, i64 12, i1 false)
  call void @llvm.lifetime.end.p0(i64 12, ptr %11) #6
  %46 = load ptr, ptr %5, align 8
  %47 = icmp ne ptr %46, null
  br i1 %47, label %48, label %50

48:                                               ; preds = %41
  %49 = load ptr, ptr %5, align 8
  call void @llvm.memcpy.p0.p0.i64(ptr align 4 %49, ptr align 4 %6, i64 12, i1 false)
  br label %50

50:                                               ; preds = %48, %41
  %51 = load ptr, ptr %4, align 8
  %52 = getelementptr inbounds nuw %struct.AlterObjectDependsStmt, ptr %51, i32 0, i32 5
  %53 = load i8, ptr %52, align 8, !range !4, !noundef !5
  %54 = trunc i8 %53 to i1
  br i1 %54, label %55, label %65

55:                                               ; preds = %50
  %56 = getelementptr inbounds nuw %struct.ObjectAddress, ptr %3, i32 0, i32 0
  %57 = load i32, ptr %56, align 4
  %58 = getelementptr inbounds nuw %struct.ObjectAddress, ptr %3, i32 0, i32 1
  %59 = load i32, ptr %58, align 4
  %60 = getelementptr inbounds nuw %struct.ObjectAddress, ptr %6, i32 0, i32 0
  %61 = load i32, ptr %60, align 4
  %62 = getelementptr inbounds nuw %struct.ObjectAddress, ptr %6, i32 0, i32 1
  %63 = load i32, ptr %62, align 4
  %64 = call i64 @deleteDependencyRecordsForSpecific(i32 noundef %57, i32 noundef %59, i8 noundef signext 120, i32 noundef %61, i32 noundef %63)
  br label %77

65:                                               ; preds = %50
  call void @llvm.lifetime.start.p0(i64 8, ptr %13) #6
  %66 = getelementptr inbounds nuw %struct.ObjectAddress, ptr %3, i32 0, i32 0
  %67 = load i32, ptr %66, align 4
  %68 = getelementptr inbounds nuw %struct.ObjectAddress, ptr %3, i32 0, i32 1
  %69 = load i32, ptr %68, align 4
  %70 = call ptr @getAutoExtensionsOfObject(i32 noundef %67, i32 noundef %69)
  store ptr %70, ptr %13, align 8
  %71 = load ptr, ptr %13, align 8
  %72 = getelementptr inbounds nuw %struct.ObjectAddress, ptr %6, i32 0, i32 1
  %73 = load i32, ptr %72, align 4
  %74 = call zeroext i1 @list_member_oid(ptr noundef %71, i32 noundef %73)
  br i1 %74, label %76, label %75

75:                                               ; preds = %65
  call void @recordDependencyOn(ptr noundef %3, ptr noundef %6, i32 noundef 120)
  br label %76

76:                                               ; preds = %75, %65
  call void @llvm.lifetime.end.p0(i64 8, ptr %13) #6
  br label %77

77:                                               ; preds = %76, %55
  call void @llvm.lifetime.end.p0(i64 8, ptr %7) #6
  call void @llvm.lifetime.end.p0(i64 12, ptr %6) #6
  call void @llvm.memcpy.p0.p0.i64(ptr align 8 %14, ptr align 4 %3, i64 12, i1 false)
  %78 = load { i64, i32 }, ptr %14, align 8
  ret { i64, i32 } %78
}