; Function Attrs: nounwind uwtable
define dso_local { i64, i32 } @ExecAlterObjectDependsStmt(ptr noundef readonly captures(none) %0, ptr noundef writeonly captures(address_is_null) %1) local_unnamed_addr #0 {
  %3 = alloca %struct.ObjectAddress, align 8
  %4 = alloca %struct.ObjectAddress, align 8
  %5 = alloca ptr, align 8
  call void @llvm.lifetime.start.p0(i64 12, ptr nonnull %4) #8
  call void @llvm.lifetime.start.p0(i64 8, ptr nonnull %5) #8
  %6 = getelementptr inbounds nuw i8, ptr %0, i64 4
  %7 = load i32, ptr %6, align 4
  %8 = getelementptr inbounds nuw i8, ptr %0, i64 8
  %9 = load ptr, ptr %8, align 8
  %10 = getelementptr inbounds nuw i8, ptr %0, i64 16
  %11 = load ptr, ptr %10, align 8
  %12 = call { i64, i32 } @get_object_address_rv(i32 noundef %7, ptr noundef %9, ptr noundef %11, ptr noundef nonnull %5, i32 noundef 8, i1 noundef zeroext false) #8
  %.fca.0.extract6 = extractvalue { i64, i32 } %12, 0
  %.fca.1.extract7 = extractvalue { i64, i32 } %12, 1
  store i64 %.fca.0.extract6, ptr %3, align 8
  %.sroa.411.0..sroa_idx = getelementptr inbounds nuw i8, ptr %3, i64 8
  store i32 %.fca.1.extract7, ptr %.sroa.411.0..sroa_idx, align 8
  %13 = call i32 @GetUserId() #8
  %14 = load i32, ptr %6, align 4
  %15 = load ptr, ptr %10, align 8
  %16 = load ptr, ptr %5, align 8
  call void @check_object_ownership(i32 noundef %13, i32 noundef %14, i64 %.fca.0.extract6, i32 %.fca.1.extract7, ptr noundef %15, ptr noundef %16) #8
  %17 = load ptr, ptr %5, align 8
  %.not = icmp eq ptr %17, null
  %18 = trunc i64 %.fca.0.extract6 to i32
  %19 = lshr i64 %.fca.0.extract6, 32
  %20 = trunc nuw i64 %19 to i32
  br i1 %.not, label %22, label %21

21:                                               ; preds = %2
  call void @table_close(ptr noundef nonnull %17, i32 noundef 0) #8
  br label %22

22:                                               ; preds = %21, %2
  %23 = getelementptr inbounds nuw i8, ptr %0, i64 24
  %24 = load ptr, ptr %23, align 8
  %25 = call { i64, i32 } @get_object_address(i32 noundef 15, ptr noundef %24, ptr noundef null, i32 noundef 8, i1 noundef zeroext false) #8
  %.fca.0.extract = extractvalue { i64, i32 } %25, 0
  %.fca.1.extract = extractvalue { i64, i32 } %25, 1
  store i64 %.fca.0.extract, ptr %4, align 8
  %.sroa.4.0..sroa_idx = getelementptr inbounds nuw i8, ptr %4, i64 8
  store i32 %.fca.1.extract, ptr %.sroa.4.0..sroa_idx, align 8
  %.not22 = icmp eq ptr %1, null
  %26 = lshr i64 %.fca.0.extract, 32
  %27 = trunc nuw i64 %26 to i32
  %28 = trunc i64 %.fca.0.extract to i32
  br i1 %.not22, label %30, label %29

29:                                               ; preds = %22
  call void @llvm.memcpy.p0.p0.i64(ptr noundef nonnull align 4 dereferenceable(12) %1, ptr noundef nonnull align 8 dereferenceable(12) %4, i64 12, i1 false)
  br label %30

30:                                               ; preds = %29, %22
  %31 = getelementptr inbounds nuw i8, ptr %0, i64 32
  %32 = load i8, ptr %31, align 8, !range !4, !noundef !5
  %33 = trunc nuw i8 %32 to i1
  br i1 %33, label %34, label %36

34:                                               ; preds = %30
  %35 = call i64 @deleteDependencyRecordsForSpecific(i32 noundef %18, i32 noundef %20, i8 noundef signext 120, i32 noundef %28, i32 noundef %27) #8
  br label %42

36:                                               ; preds = %30
  %37 = call ptr @getAutoExtensionsOfObject(i32 noundef %18, i32 noundef %20) #8
  %38 = call zeroext i1 @list_member_oid(ptr noundef %37, i32 noundef %27) #8
  br i1 %38, label %42, label %39

39:                                               ; preds = %36
  call void @recordDependencyOn(ptr noundef nonnull %3, ptr noundef nonnull %4, i32 noundef 120) #8
  %.sroa.0.0.copyload.pre = load i64, ptr %3, align 8
  %.sroa.2.0.copyload.pre = load i32, ptr %.sroa.411.0..sroa_idx, align 8
  %40 = insertvalue { i64, i32 } poison, i64 %.sroa.0.0.copyload.pre, 0
  %41 = insertvalue { i64, i32 } %40, i32 %.sroa.2.0.copyload.pre, 1
  br label %42

42:                                               ; preds = %36, %39, %34
  %.fca.1.insert.merged = phi { i64, i32 } [ %12, %36 ], [ %41, %39 ], [ %12, %34 ]
  call void @llvm.lifetime.end.p0(i64 8, ptr nonnull %5) #8
  call void @llvm.lifetime.end.p0(i64 12, ptr nonnull %4) #8
  ret { i64, i32 } %.fca.1.insert.merged
}